; Function Attrs: mustprogress uwtable
define internal void @_ZN9grpc_core12_GLOBAL__N_120ExternalStateWatcher18FinishedCompletionEPvP18grpc_cq_completion(ptr noundef %0, ptr readnone captures(none) %1) #13 align 2 {
  %3 = getelementptr inbounds nuw i8, ptr %0, i64 8
  %4 = atomicrmw sub ptr %3, i64 1 acq_rel, align 8
  %5 = icmp eq i64 %4, 1
  br i1 %5, label %6, label %_ZNK9grpc_core10RefCountedINS_12_GLOBAL__N_120ExternalStateWatcherENS_19PolymorphicRefCountENS_11UnrefDeleteEE5UnrefEv.exit, !prof !26

6:                                                ; preds = %2
  %7 = load ptr, ptr %0, align 8, !tbaa !8
  %8 = getelementptr inbounds nuw i8, ptr %7, i64 8
  %9 = load ptr, ptr %8, align 8
  tail call void %9(ptr noundef nonnull align 8 dereferenceable(112) %0) #42
  br label %_ZNK9grpc_core10RefCountedINS_12_GLOBAL__N_120ExternalStateWatcherENS_19PolymorphicRefCountENS_11UnrefDeleteEE5UnrefEv.exit

_ZNK9grpc_core10RefCountedINS_12_GLOBAL__N_120ExternalStateWatcherENS_19PolymorphicRefCountENS_11UnrefDeleteEE5UnrefEv.exit: ; preds = %2, %6
  ret void
}